; Function Attrs: mustprogress uwtable
define void @_ZNK6casadi10SXFunction5sx_inEx(ptr dead_on_unwind noalias writable sret(%"class.casadi::Matrix") align 8 %0, ptr nocapture noundef nonnull readonly align 8 dereferenceable(1483) %1, i64 noundef %2) unnamed_addr #3 align 2 {
  %4 = getelementptr inbounds i8, ptr %1, i64 1304
  %5 = getelementptr inbounds i8, ptr %1, i64 1312
  %6 = load ptr, ptr %5, align 8
  %7 = load ptr, ptr %4, align 8
  %8 = ptrtoint ptr %6 to i64
  %9 = ptrtoint ptr %7 to i64
  %10 = sub i64 %8, %9
  %11 = sdiv exact i64 %10, 40
  %.not.i.i = icmp ugt i64 %11, %2
  br i1 %.not.i.i, label %_ZNKSt6vectorIN6casadi6MatrixINS0_6SXElemEEESaIS3_EE2atEm.exit, label %12

12:                                               ; preds = %3
  tail call void (ptr, ...) @_ZSt24__throw_out_of_range_fmtPKcz(ptr noundef nonnull @.str.148, i64 noundef %2, i64 noundef %11) #26
  unreachable

_ZNKSt6vectorIN6casadi6MatrixINS0_6SXElemEEESaIS3_EE2atEm.exit: ; preds = %3
  %13 = getelementptr inbounds %"class.casadi::Matrix", ptr %7, i64 %2
  tail call void @_ZN6casadi6MatrixINS_6SXElemEEC1ERKS2_(ptr noundef nonnull align 8 dereferenceable(40) %0, ptr noundef nonnull align 8 dereferenceable(40) %13)
  ret void
}